; Function Attrs: nounwind uwtable
define internal fastcc i32 @check_code_point_sequence_cc(ptr noundef %0, ptr noundef %1, i32 noundef %2, ptr noundef readonly captures(none) %3, i32 noundef range(i32 0, 2) %4) unnamed_addr #2 {
  %6 = alloca ptr, align 8
  %7 = alloca i32, align 4
  call void @llvm.lifetime.start.p0(i64 4, ptr nonnull %7) #25
  %.not87 = icmp ult ptr %0, %1
  br i1 %.not87, label %.preheader67.lr.ph, label %.loopexit68

.preheader67.lr.ph:                               ; preds = %5
  %8 = getelementptr inbounds nuw i8, ptr %3, i64 32
  br label %.preheader67

.preheader67:                                     ; preds = %.preheader67.lr.ph, %54
  %.promoted85 = phi ptr [ %0, %.preheader67.lr.ph ], [ %58, %54 ]
  %9 = phi i1 [ false, %.preheader67.lr.ph ], [ true, %54 ]
  %.05489 = phi i32 [ 0, %.preheader67.lr.ph ], [ %55, %54 ]
  %.05688 = phi i32 [ %4, %.preheader67.lr.ph ], [ %57, %54 ]
  br label %10

10:                                               ; preds = %.preheader67, %28
  %11 = phi ptr [ %29, %28 ], [ %.promoted85, %.preheader67 ]
  %.157 = phi i32 [ 2, %28 ], [ %.05688, %.preheader67 ]
  %.153 = phi i1 [ false, %28 ], [ %9, %.preheader67 ]
  %12 = load ptr, ptr %8, align 8, !tbaa !80
  %13 = tail call i32 %12(ptr noundef %11, ptr noundef nonnull %1) #25
  %14 = load ptr, ptr %3, align 8, !tbaa !82
  %15 = tail call i32 %14(ptr noundef %11) #25
  %16 = sext i32 %15 to i64
  %17 = getelementptr inbounds i8, ptr %11, i64 %16
  switch i32 %13, label %31 [
    i32 125, label %18
    i32 32, label %.preheader
    i32 10, label %.preheader
    i32 45, label %28
  ]

.preheader:                                       ; preds = %10, %10
  %.not6378 = icmp ult ptr %17, %1
  br i1 %.not6378, label %.lr.ph, label %._crit_edge

18:                                               ; preds = %10, %50
  %19 = icmp eq i32 %.157, 2
  %..054 = select i1 %19, i32 -400, i32 %.05489
  br label %.loopexit68

.lr.ph:                                           ; preds = %.preheader, %.backedge
  %20 = phi ptr [ %26, %.backedge ], [ %17, %.preheader ]
  %21 = load ptr, ptr %8, align 8, !tbaa !80
  %22 = tail call i32 %21(ptr noundef %20, ptr noundef nonnull %1) #25
  %23 = load ptr, ptr %3, align 8, !tbaa !82
  %24 = tail call i32 %23(ptr noundef %20) #25
  %25 = sext i32 %24 to i64
  %26 = getelementptr inbounds i8, ptr %20, i64 %25
  switch i32 %22, label %._crit_edge [
    i32 32, label %.backedge
    i32 10, label %.backedge
  ]

.backedge:                                        ; preds = %.lr.ph, %.lr.ph
  %.not63 = icmp ult ptr %26, %1
  br i1 %.not63, label %.lr.ph, label %._crit_edge

._crit_edge:                                      ; preds = %.backedge, %.lr.ph, %.preheader
  %27 = phi ptr [ %17, %.preheader ], [ %26, %.lr.ph ], [ %26, %.backedge ]
  %.150 = phi i32 [ %13, %.preheader ], [ %22, %.lr.ph ], [ %22, %.backedge ]
  %.1 = phi ptr [ %11, %.preheader ], [ %20, %.lr.ph ], [ %20, %.backedge ]
  switch i32 %.150, label %50 [
    i32 32, label %.loopexit68
    i32 10, label %.loopexit68
  ]

28:                                               ; preds = %10, %50
  %29 = phi ptr [ %17, %10 ], [ %51, %50 ]
  %.not65 = icmp eq i32 %.157, 1
  %30 = icmp ult ptr %29, %1
  %or.cond = select i1 %.not65, i1 %30, i1 false
  br i1 %or.cond, label %10, label %.loopexit68

31:                                               ; preds = %10
  br i1 %.153, label %32, label %50

32:                                               ; preds = %31
  %33 = icmp eq i32 %2, 16
  br i1 %33, label %34, label %40

34:                                               ; preds = %32
  %35 = icmp ult i32 %13, 128
  br i1 %35, label %36, label %49

36:                                               ; preds = %34
  %37 = getelementptr inbounds nuw i8, ptr %3, i64 88
  %38 = load ptr, ptr %37, align 8, !tbaa !170
  %39 = tail call i32 %38(i32 noundef %13, i32 noundef 11) #25
  %.not62 = icmp eq i32 %39, 0
  br i1 %.not62, label %49, label %.loopexit68

40:                                               ; preds = %32
  %41 = icmp eq i32 %2, 8
  %42 = icmp ult i32 %13, 128
  %or.cond9 = select i1 %41, i1 %42, i1 false
  br i1 %or.cond9, label %43, label %49

43:                                               ; preds = %40
  %44 = getelementptr inbounds nuw i8, ptr %3, i64 88
  %45 = load ptr, ptr %44, align 8, !tbaa !170
  %46 = tail call i32 %45(i32 noundef %13, i32 noundef 4) #25
  %47 = icmp ne i32 %46, 0
  %48 = icmp samesign ult i32 %13, 56
  %or.cond7 = select i1 %47, i1 %48, i1 false
  br i1 %or.cond7, label %.loopexit68, label %49

49:                                               ; preds = %40, %43, %34, %36
  br label %.loopexit68

50:                                               ; preds = %._crit_edge, %31
  %51 = phi ptr [ %27, %._crit_edge ], [ %17, %31 ]
  %.251 = phi i32 [ %.150, %._crit_edge ], [ %13, %31 ]
  %.2 = phi ptr [ %.1, %._crit_edge ], [ %11, %31 ]
  switch i32 %.251, label %52 [
    i32 125, label %18
    i32 45, label %28
  ]

52:                                               ; preds = %50
  store ptr %.2, ptr %6, align 8, !tbaa !149
  %53 = call fastcc i32 @scan_number_of_base(ptr noundef %6, ptr noundef nonnull %1, ptr noundef nonnull %3, ptr noundef %7, i32 noundef %2)
  %.not64 = icmp eq i32 %53, 0
  br i1 %.not64, label %54, label %.loopexit68

54:                                               ; preds = %52
  %55 = add nuw nsw i32 %.05489, 1
  %56 = icmp ne i32 %.157, 2
  %57 = zext i1 %56 to i32
  %58 = load ptr, ptr %6, align 8, !tbaa !149
  %.not = icmp ult ptr %58, %1
  br i1 %.not, label %.preheader67, label %.loopexit68, !llvm.loop !284

.loopexit68:                                      ; preds = %52, %54, %28, %._crit_edge, %._crit_edge, %5, %43, %36, %18, %49
  %.055 = phi i32 [ -400, %49 ], [ %..054, %18 ], [ -212, %36 ], [ -212, %43 ], [ -400, %5 ], [ -400, %._crit_edge ], [ -400, %._crit_edge ], [ -400, %28 ], [ %53, %52 ], [ -400, %54 ]
  call void @llvm.lifetime.end.p0(i64 4, ptr nonnull %7) #25
  ret i32 %.055
}